; ModuleID = '34/957.c'
source_filename = "34/957.c"
target datalayout = "e-m:e-p270:32:32-p271:32:32-p272:64:64-i64:64-f80:128-n8:16:32:64-S128"
target triple = "x86_64-pc-linux-gnu"

@.str = private unnamed_addr constant [3 x i8] c"%d\00", align 1
@.str.1 = private unnamed_addr constant [9 x i8] c"%d/2=%d\0A\00", align 1
@.str.2 = private unnamed_addr constant [11 x i8] c"%d*3+1=%d\0A\00", align 1
@.str.3 = private unnamed_addr constant [5 x i8] c"End\0A\00", align 1

; Function Attrs: noinline nounwind uwtable
define dso_local i32 @main() #0 {
  %1 = alloca i32, align 4
  %2 = alloca i32, align 4
  %3 = alloca i32, align 4
  store i32 0, i32* %1, align 4
  %4 = call i32 (i8*, ...) @__isoc99_scanf(i8* getelementptr inbounds ([3 x i8], [3 x i8]* @.str, i64 0, i64 0), i32* %3)
  %5 = load i32, i32* %3, align 4
  %6 = icmp ne i32 %5, 1
  br i1 %6, label %7, label %40

7:                                                ; preds = %0
  br label %8

8:                                                ; preds = %38, %7
  %9 = load i32, i32* %3, align 4
  %10 = sdiv i32 %9, 2
  %11 = icmp ne i32 %10, 1
  br i1 %11, label %16, label %12

12:                                               ; preds = %8
  %13 = load i32, i32* %3, align 4
  %14 = srem i32 %13, 2
  %15 = icmp ne i32 %14, 0
  br label %16

16:                                               ; preds = %12, %8
  %17 = phi i1 [ true, %8 ], [ %15, %12 ]
  br i1 %17, label %18, label %39

18:                                               ; preds = %16
  %19 = load i32, i32* %3, align 4
  %20 = srem i32 %19, 2
  %21 = icmp eq i32 %20, 0
  br i1 %21, label %22, label %29

22:                                               ; preds = %18
  %23 = load i32, i32* %3, align 4
  %24 = load i32, i32* %3, align 4
  %25 = sdiv i32 %24, 2
  %26 = call i32 (i8*, ...) @printf(i8* getelementptr inbounds ([9 x i8], [9 x i8]* @.str.1, i64 0, i64 0), i32 %23, i32 %25)
  %27 = load i32, i32* %3, align 4
  %28 = sdiv i32 %27, 2
  store i32 %28, i32* %3, align 4
  br label %38

29:                                               ; preds = %18
  %30 = load i32, i32* %3, align 4
  %31 = load i32, i32* %3, align 4
  %32 = mul nsw i32 %31, 3
  %33 = add nsw i32 %32, 1
  %34 = call i32 (i8*, ...) @printf(i8* getelementptr inbounds ([11 x i8], [11 x i8]* @.str.2, i64 0, i64 0), i32 %30, i32 %33)
  %35 = load i32, i32* %3, align 4
  %36 = mul nsw i32 %35, 3
  %37 = add nsw i32 %36, 1
  store i32 %37, i32* %3, align 4
  br label %38

38:                                               ; preds = %29, %22
  br label %8

39:                                               ; preds = %16
  br label %40

40:                                               ; preds = %39, %0
  %41 = load i32, i32* %3, align 4
  %42 = icmp ne i32 %41, 1
  br i1 %42, label %43, label %48

43:                                               ; preds = %40
  %44 = load i32, i32* %3, align 4
  %45 = load i32, i32* %3, align 4
  %46 = sdiv i32 %45, 2
  %47 = call i32 (i8*, ...) @printf(i8* getelementptr inbounds ([9 x i8], [9 x i8]* @.str.1, i64 0, i64 0), i32 %44, i32 %46)
  br label %48

48:                                               ; preds = %43, %40
  %49 = call i32 (i8*, ...) @printf(i8* getelementptr inbounds ([5 x i8], [5 x i8]* @.str.3, i64 0, i64 0))
  ret i32 0
}

declare dso_local i32 @__isoc99_scanf(i8*, ...) #1

declare dso_local i32 @printf(i8*, ...) #1


!llvm.module.flags = !{!0}
!llvm.ident = !{!1}

!0 = !{i32 1, !"wchar_size", i32 4}
!1 = !{!"clang version 10.0.0-4ubuntu1 "}
